; ModuleID = '19/1095.c'
source_filename = "19/1095.c"
target datalayout = "e-m:e-p270:32:32-p271:32:32-p272:64:64-i64:64-f80:128-n8:16:32:64-S128"
target triple = "x86_64-pc-linux-gnu"

@.str = private unnamed_addr constant [4 x i8] c"%s \00", align 1
@.str.1 = private unnamed_addr constant [3 x i8] c"%s\00", align 1

; Function Attrs: noinline nounwind uwtable
define dso_local i32 @main() #0 {
  %1 = alloca i32, align 4
  %2 = alloca [4000 x i8], align 16
  %3 = alloca [100 x i8], align 16
  %4 = alloca [100 x i8], align 16
  %5 = alloca [40 x [100 x i8]], align 16
  %6 = alloca [100 x i8], align 16
  %7 = alloca i32, align 4
  %8 = alloca i32, align 4
  %9 = alloca i32, align 4
  %10 = alloca i32, align 4
  %11 = alloca i32, align 4
  store i32 0, i32* %1, align 4
  %12 = bitcast [100 x i8]* %6 to i8*
  call void @llvm.memset.p0i8.i64(i8* align 16 %12, i8 0, i64 100, i1 false)
  store i32 0, i32* %7, align 4
  store i32 0, i32* %8, align 4
  %13 = getelementptr inbounds [4000 x i8], [4000 x i8]* %2, i64 0, i64 0
  %14 = call i32 (i8*, ...) bitcast (i32 (...)* @gets to i32 (i8*, ...)*)(i8* %13)
  %15 = getelementptr inbounds [4000 x i8], [4000 x i8]* %2, i64 0, i64 0
  %16 = call i64 @strlen(i8* %15) #5
  %17 = trunc i64 %16 to i32
  store i32 %17, i32* %10, align 4
  store i32 0, i32* %9, align 4
  br label %18

18:                                               ; preds = %93, %0
  %19 = load i32, i32* %9, align 4
  %20 = load i32, i32* %10, align 4
  %21 = icmp slt i32 %19, %20
  br i1 %21, label %22, label %96

22:                                               ; preds = %18
  %23 = load i32, i32* %9, align 4
  %24 = sext i32 %23 to i64
  %25 = getelementptr inbounds [4000 x i8], [4000 x i8]* %2, i64 0, i64 %24
  %26 = load i8, i8* %25, align 1
  %27 = sext i8 %26 to i32
  %28 = icmp ne i32 %27, 32
  br i1 %28, label %29, label %49

29:                                               ; preds = %22
  %30 = load i32, i32* %9, align 4
  %31 = sext i32 %30 to i64
  %32 = getelementptr inbounds [4000 x i8], [4000 x i8]* %2, i64 0, i64 %31
  %33 = load i8, i8* %32, align 1
  %34 = load i32, i32* %7, align 4
  %35 = sext i32 %34 to i64
  %36 = getelementptr inbounds [100 x i8], [100 x i8]* %6, i64 0, i64 %35
  store i8 %33, i8* %36, align 1
  %37 = load i32, i32* %9, align 4
  %38 = sext i32 %37 to i64
  %39 = getelementptr inbounds [4000 x i8], [4000 x i8]* %2, i64 0, i64 %38
  %40 = load i8, i8* %39, align 1
  %41 = load i32, i32* %8, align 4
  %42 = sext i32 %41 to i64
  %43 = getelementptr inbounds [40 x [100 x i8]], [40 x [100 x i8]]* %5, i64 0, i64 %42
  %44 = load i32, i32* %7, align 4
  %45 = sext i32 %44 to i64
  %46 = getelementptr inbounds [100 x i8], [100 x i8]* %43, i64 0, i64 %45
  store i8 %40, i8* %46, align 1
  %47 = load i32, i32* %7, align 4
  %48 = add nsw i32 %47, 1
  store i32 %48, i32* %7, align 4
  br label %69

49:                                               ; preds = %22
  %50 = load i32, i32* %8, align 4
  %51 = sext i32 %50 to i64
  %52 = getelementptr inbounds [40 x [100 x i8]], [40 x [100 x i8]]* %5, i64 0, i64 %51
  %53 = getelementptr inbounds [100 x i8], [100 x i8]* %52, i64 0, i64 0
  %54 = getelementptr inbounds [100 x i8], [100 x i8]* %6, i64 0, i64 0
  %55 = call i8* @strcpy(i8* %53, i8* %54) #6
  store i32 0, i32* %7, align 4
  %56 = load i32, i32* %8, align 4
  %57 = add nsw i32 %56, 1
  store i32 %57, i32* %8, align 4
  store i32 0, i32* %11, align 4
  br label %58

58:                                               ; preds = %65, %49
  %59 = load i32, i32* %11, align 4
  %60 = icmp slt i32 %59, 100
  br i1 %60, label %61, label %68

61:                                               ; preds = %58
  %62 = load i32, i32* %11, align 4
  %63 = sext i32 %62 to i64
  %64 = getelementptr inbounds [100 x i8], [100 x i8]* %6, i64 0, i64 %63
  store i8 0, i8* %64, align 1
  br label %65

65:                                               ; preds = %61
  %66 = load i32, i32* %11, align 4
  %67 = add nsw i32 %66, 1
  store i32 %67, i32* %11, align 4
  br label %58

68:                                               ; preds = %58
  br label %69

69:                                               ; preds = %68, %29
  %70 = load i32, i32* %9, align 4
  %71 = load i32, i32* %10, align 4
  %72 = sub nsw i32 %71, 1
  %73 = icmp eq i32 %70, %72
  br i1 %73, label %74, label %92

74:                                               ; preds = %69
  %75 = load i32, i32* %8, align 4
  %76 = sext i32 %75 to i64
  %77 = getelementptr inbounds [40 x [100 x i8]], [40 x [100 x i8]]* %5, i64 0, i64 %76
  %78 = getelementptr inbounds [100 x i8], [100 x i8]* %77, i64 0, i64 0
  %79 = getelementptr inbounds [100 x i8], [100 x i8]* %6, i64 0, i64 0
  %80 = call i8* @strcpy(i8* %78, i8* %79) #6
  store i32 0, i32* %11, align 4
  br label %81

81:                                               ; preds = %88, %74
  %82 = load i32, i32* %11, align 4
  %83 = icmp slt i32 %82, 100
  br i1 %83, label %84, label %91

84:                                               ; preds = %81
  %85 = load i32, i32* %11, align 4
  %86 = sext i32 %85 to i64
  %87 = getelementptr inbounds [100 x i8], [100 x i8]* %6, i64 0, i64 %86
  store i8 0, i8* %87, align 1
  br label %88

88:                                               ; preds = %84
  %89 = load i32, i32* %11, align 4
  %90 = add nsw i32 %89, 1
  store i32 %90, i32* %11, align 4
  br label %81

91:                                               ; preds = %81
  br label %92

92:                                               ; preds = %91, %69
  br label %93

93:                                               ; preds = %92
  %94 = load i32, i32* %9, align 4
  %95 = add nsw i32 %94, 1
  store i32 %95, i32* %9, align 4
  br label %18

96:                                               ; preds = %18
  %97 = getelementptr inbounds [100 x i8], [100 x i8]* %3, i64 0, i64 0
  %98 = call i32 (i8*, ...) bitcast (i32 (...)* @gets to i32 (i8*, ...)*)(i8* %97)
  %99 = getelementptr inbounds [100 x i8], [100 x i8]* %4, i64 0, i64 0
  %100 = call i32 (i8*, ...) bitcast (i32 (...)* @gets to i32 (i8*, ...)*)(i8* %99)
  store i32 0, i32* %9, align 4
  br label %101

101:                                              ; preds = %121, %96
  %102 = load i32, i32* %9, align 4
  %103 = load i32, i32* %8, align 4
  %104 = icmp sle i32 %102, %103
  br i1 %104, label %105, label %124

105:                                              ; preds = %101
  %106 = load i32, i32* %9, align 4
  %107 = sext i32 %106 to i64
  %108 = getelementptr inbounds [40 x [100 x i8]], [40 x [100 x i8]]* %5, i64 0, i64 %107
  %109 = getelementptr inbounds [100 x i8], [100 x i8]* %108, i64 0, i64 0
  %110 = getelementptr inbounds [100 x i8], [100 x i8]* %3, i64 0, i64 0
  %111 = call i32 @strcmp(i8* %109, i8* %110) #5
  %112 = icmp eq i32 %111, 0
  br i1 %112, label %113, label %120

113:                                              ; preds = %105
  %114 = load i32, i32* %9, align 4
  %115 = sext i32 %114 to i64
  %116 = getelementptr inbounds [40 x [100 x i8]], [40 x [100 x i8]]* %5, i64 0, i64 %115
  %117 = getelementptr inbounds [100 x i8], [100 x i8]* %116, i64 0, i64 0
  %118 = getelementptr inbounds [100 x i8], [100 x i8]* %4, i64 0, i64 0
  %119 = call i8* @strcpy(i8* %117, i8* %118) #6
  br label %120

120:                                              ; preds = %113, %105
  br label %121

121:                                              ; preds = %120
  %122 = load i32, i32* %9, align 4
  %123 = add nsw i32 %122, 1
  store i32 %123, i32* %9, align 4
  br label %101

124:                                              ; preds = %101
  store i32 0, i32* %9, align 4
  br label %125

125:                                              ; preds = %135, %124
  %126 = load i32, i32* %9, align 4
  %127 = load i32, i32* %8, align 4
  %128 = icmp slt i32 %126, %127
  br i1 %128, label %129, label %138

129:                                              ; preds = %125
  %130 = load i32, i32* %9, align 4
  %131 = sext i32 %130 to i64
  %132 = getelementptr inbounds [40 x [100 x i8]], [40 x [100 x i8]]* %5, i64 0, i64 %131
  %133 = getelementptr inbounds [100 x i8], [100 x i8]* %132, i64 0, i64 0
  %134 = call i32 (i8*, ...) @printf(i8* getelementptr inbounds ([4 x i8], [4 x i8]* @.str, i64 0, i64 0), i8* %133)
  br label %135

135:                                              ; preds = %129
  %136 = load i32, i32* %9, align 4
  %137 = add nsw i32 %136, 1
  store i32 %137, i32* %9, align 4
  br label %125

138:                                              ; preds = %125
  %139 = load i32, i32* %8, align 4
  %140 = sext i32 %139 to i64
  %141 = getelementptr inbounds [40 x [100 x i8]], [40 x [100 x i8]]* %5, i64 0, i64 %140
  %142 = getelementptr inbounds [100 x i8], [100 x i8]* %141, i64 0, i64 0
  %143 = call i32 (i8*, ...) @printf(i8* getelementptr inbounds ([3 x i8], [3 x i8]* @.str.1, i64 0, i64 0), i8* %142)
  ret i32 0
}

; Function Attrs: argmemonly nounwind willreturn
declare void @llvm.memset.p0i8.i64(i8* nocapture writeonly, i8, i64, i1 immarg) #1

declare dso_local i32 @gets(...) #2

; Function Attrs: nounwind readonly
declare dso_local i64 @strlen(i8*) #3

; Function Attrs: nounwind
declare dso_local i8* @strcpy(i8*, i8*) #4

; Function Attrs: nounwind readonly
declare dso_local i32 @strcmp(i8*, i8*) #3

declare dso_local i32 @printf(i8*, ...) #2


!llvm.module.flags = !{!0}
!llvm.ident = !{!1}

!0 = !{i32 1, !"wchar_size", i32 4}
!1 = !{!"clang version 10.0.0-4ubuntu1 "}
